(lp1
(dp2
S'mpn'
p3
S'ERJ-3GEY0R00V'
p4
sS'brand'
p5
S'Panasonic'
p6
sa(dp7
g3
S'ERJ-3EKF10R0V'
p8
sg5
S'Panasonic'
p9
sa(dp10
g3
S'ERJ3EKF12R0V'
p11
sg5
S'Panasonic'
p12
sa(dp13
g3
S'ERJ-3EKF15R0V'
p14
sg5
S'Panasonic'
p15
sa(dp16
g3
S'ERJ-3EKF22R0V'
p17
sg5
S'Panasonic'
p18
sa(dp19
g3
S'ERJ-3EKF33R2V'
p20
sg5
S'Panasonic'
p21
sa(dp22
g3
S'ERJ-3EKF47R0V'
p23
sg5
S'Panasonic'
p24
sa(dp25
g3
S'ERJ-3EKF49R9V'
p26
sg5
S'Panasonic'
p27
sa(dp28
g3
S'ERJ-3EKF56R2V'
p29
sg5
S'Panasonic'
p30
sa(dp31
g3
S'ERJ-3EKF68R1V'
p32
sg5
S'Panasonic'
p33
sa(dp34
g3
S'ERJ-3EKF75R0V'
p35
sg5
S'Panasonic'
p36
sa(dp37
g3
S'ERJ-3EKF82R5V'
p38
sg5
S'Panasonic'
p39
sa(dp40
g3
S'ERJ-3EKF1000V'
p41
sg5
S'Panasonic'
p42
sa(dp43
g3
S'ERJ3EKF1200V'
p44
sg5
S'Panasonic'
p45
sa(dp46
g3
S'ERJ-3EKF1500V'
p47
sg5
S'Panasonic'
p48
sa(dp49
g3
S'ERJ-3EKF2200V'
p50
sg5
S'Panasonic'
p51
sa(dp52
g3
S'ERJ-3EKF3300V'
p53
sg5
S'Panasonic'
p54
sa(dp55
g3
S'ERJ-3EKF3900V'
p56
sg5
S'Panasonic'
p57
sa(dp58
g3
S'ERJ-3EKF4700V'
p59
sg5
S'Panasonic'
p60
sa(dp61
g3
S'ERJ-3EKF5600V'
p62
sg5
S'Panasonic'
p63
sa(dp64
g3
S'ERJ-3EKF6810V'
p65
sg5
S'Panasonic'
p66
sa(dp67
g3
S'ERJ-3EKF8200V'
p68
sg5
S'Panasonic'
p69
sa(dp70
g3
S'ERJ-3EKF1001V'
p71
sg5
S'Panasonic'
p72
sa(dp73
g3
S'ERJ3EKF1201V'
p74
sg5
S'Panasonic'
p75
sa(dp76
g3
S'ERJ-3EKF1501V'
p77
sg5
S'Panasonic'
p78
sa(dp79
g3
S'ERJ-3EKF2001V'
p80
sg5
S'Panasonic'
p81
sa(dp82
g3
S'ERJ-3EKF3601V'
p83
sg5
S'Panasonic'
p84
sa(dp85
g3
S'ERJ-3EKF4701V'
p86
sg5
S'Panasonic'
p87
sa(dp88
g3
S'ERJ-3EKF5600V'
p89
sg5
S'Panasonic'
p90
sa(dp91
g3
S'ERJ-3EKF6800V'
p92
sg5
S'Panasonic'
p93
sa(dp94
g3
S'ERJ-3EKF8200V'
p95
sg5
S'Panasonic'
p96
sa(dp97
g3
S'ERJ-3EKF1002V'
p98
sg5
S'Panasonic'
p99
sa(dp100
g3
S'ERJ3EKF1202V'
p101
sg5
S'Panasonic'
p102
sa(dp103
g3
S'ERJ-3EKF1502V'
p104
sg5
S'Panasonic'
p105
sa(dp106
g3
S'ERJ-3EKF2202V'
p107
sg5
S'Panasonic'
p108
sa(dp109
g3
S'ERJ-3EKF3322V'
p110
sg5
S'Panasonic'
p111
sa(dp112
g3
S'ERJ-3EKF4702V'
p113
sg5
S'Panasonic'
p114
sa(dp115
g3
S'ERJ-3EKF5622V'
p116
sg5
S'Panasonic'
p117
sa(dp118
g3
S'ERJ-3EKF6812V'
p119
sg5
S'Panasonic'
p120
sa(dp121
g3
S'ERJ-3EKF8252V'
p122
sg5
S'Panasonic'
p123
sa(dp124
g3
S'ERJ-3EKF1003V'
p125
sg5
S'Panasonic'
p126
sa(dp127
g3
S'ERJ3EKF1203V'
p128
sg5
S'Panasonic'
p129
sa(dp130
g3
S'ERJ-3EKF1503V'
p131
sg5
S'Panasonic'
p132
sa(dp133
g3
S'ERJ-3EKF2203V'
p134
sg5
S'Panasonic'
p135
sa(dp136
g3
S'ERJ-3EKF3323V'
p137
sg5
S'Panasonic'
p138
sa(dp139
g3
S'ERJ-3EKF4703V'
p140
sg5
S'Panasonic'
p141
sa(dp142
g3
S'ERJ-3EKF5623V'
p143
sg5
S'Panasonic'
p144
sa(dp145
g3
S'ERJ-3EKF6813V'
p146
sg5
S'Panasonic'
p147
sa(dp148
g3
S'ERJ-3EKF8253V'
p149
sg5
S'Panasonic'
p150
sa(dp151
g3
S'ERJ-3EKF1004V'
p152
sg5
S'Panasonic'
p153
sa(dp154
g3
S'TC33X-2-103E'
p155
sg5
S'Bourns'
p156
sa(dp157
g3
S'VJ0402A2R2CNAAJ'
p158
sg5
S'Vishay'
p159
sa(dp160
g3
S'C0603C829J5GACTU'
p161
sg5
S'Kemet'
p162
sa(dp163
g3
S'C0603C180J5GACTU'
p164
sg5
S'Kemet'
p165
sa(dp166
g3
S'C0603C220J5GACTU'
p167
sg5
S'Kemet'
p168
sa(dp169
g3
S'C0603C270J5GACTU'
p170
sg5
S'Kemet'
p171
sa(dp172
g3
S'C0603C102J5GACTU'
p173
sg5
S'Kemet'
p174
sa(dp175
g3
S'06035C102JAT2A'
p176
sg5
S'AVX'
p177
sa(dp178
g3
S'06035C472JAT2A'
p179
sg5
S'AVX'
p180
sa(dp181
g3
S'06035C103JAT2A'
p182
sg5
S'AVX'
p183
sa(dp184
g3
S'06035C473JAT2A'
p185
sg5
S'AVX'
p186
sa(dp187
g3
S'06035C104JAT2A'
p188
sg5
S'AVX'
p189
sa(dp190
g3
S'0603YC105KAT2A'
p191
sg5
S'AVX'
p192
sa(dp193
g3
S'1206YC106KAT2A'
p194
sg5
S'AVX'
p195
sa(dp196
g3
S'GRM32ER71E226KE15L'
p197
sg5
S'Murata'
p198
sa(dp199
g3
S'GRM32ER71A476KE15L'
p200
sg5
S'Murata'
p201
sa(dp202
g3
S'TAJA105K035RNJ'
p203
sg5
S'AVX'
p204
sa(dp205
g3
S'TAJA106K016RNJ'
p206
sg5
S'AVX'
p207
sa(dp208
g3
S'293D226X9020D2TE3'
p209
sg5
S'Sprague'
p210
sa(dp211
g3
S'293D476X9016D2TE3'
p212
sg5
S'Sprague'
p213
sa(dp214
g3
S'293D107X9010D2TE3'
p215
sg5
S'Sprague'
p216
sa(dp217
g3
S'LQG15HN2N2S02D'
p218
sg5
S'Murata'
p219
sa(dp220
g3
S'ELJ-FA100KF'
p221
sg5
S'Panasonic'
p222
sa(dp223
g3
S'BLM18AG121SN1D'
p224
sg5
S'Murata'
p225
sa(dp226
g3
S'CAY16-221J4LF'
p227
sg5
S'Bourns'
p228
sa(dp229
g3
S'CAY16-102J4LF'
p230
sg5
S'Bourns'
p231
sa(dp232
g3
S'CAY16-103J4LF'
p233
sg5
S'Bourns'
p234
sa(dp235
g3
S'HSMG-C190'
p236
sg5
S'Avago'
p237
sa(dp238
g3
S'HSMH-C190'
p239
sg5
S'Avago'
p240
sa(dp241
g3
S'HSMY-C190'
p242
sg5
S'Avago'
p243
sa(dp244
g3
S'HSMD-C190'
p245
sg5
S'Avago'
p246
sa(dp247
g3
S'HSMA-C190'
p248
sg5
S'Avago'
p249
sa(dp250
g3
S'HSMR-C190'
p251
sg5
S'Avago'
p252
sa(dp253
g3
S'HSMW-C191'
p254
sg5
S'Avago'
p255
sa(dp256
g3
S'WS2812B'
p257
sg5
S'Worldsemi'
p258
sa(dp259
g3
S'1N4148WS-7-F'
p260
sg5
S'Diodes Incorporated'
p261
sa(dp262
g3
S'SS12-E3/61T'
p263
sg5
S'Vishay'
p264
sa(dp265
g3
S'BAT54S-7-F'
p266
sg5
S'Diodes Incorporated'
p267
sa(dp268
g3
S'BAS70-04-7-F'
p269
sg5
S'Diodes Incorporated'
p270
sa(dp271
g3
S'MMBT3904'
p272
sg5
S'Fairchild Semiconductor'
p273
sa(dp274
g3
S'MMBT3906'
p275
sg5
S'Fairchild Semiconductor'
p276
sa(dp277
g3
S'DMMT5401-7-F'
p278
sg5
S'Diodes Inc.'
p279
sa(dp280
g3
S'BSS138'
p281
sg5
S'Fairchild Semiconductor'
p282
sa(dp283
g3
S'BSS84'
p284
sg5
S'Fairchild Semiconductor'
p285
sa(dp286
g3
S'FQD13N06LTM'
p287
sg5
S'Fairchild Semiconductor'
p288
sa(dp289
g3
S'CSTCE16M0V53-R0'
p290
sg5
S'Murata'
p291
sa(dp292
g3
S'ABM3B-8.000MHZ-B2-T'
p293
sg5
S'Abracon'
p294
sa(dp295
g3
S'ABM3B-12.000MHZ-B2-T'
p296
sg5
S'Abracon'
p297
sa(dp298
g3
S'ABM3B-12.288MHZ-B2-T'
p299
sg5
S'Abracon'
p300
sa(dp301
g3
S'ABM3B-16.000MHZ-B2-T'
p302
sg5
S'Abracon'
p303
sa(dp304
g3
S'ABM3B-20.000MHZ-B2-T'
p305
sg5
S'Abracon'
p306
sa(dp307
g3
S'ABM3B-24.000MHZ-B2-T'
p308
sg5
S'Abracon'
p309
sa(dp310
g3
S'RASM722X'
p311
sg5
S'Switchcraft'
p312
sa(dp313
g3
S'5031821852'
p314
sg5
S'Molex'
p315
sa(dp316
g3
S'503500-0991'
p317
sg5
S'Molex'
p318
sa(dp319
g3
S'UX60-MB-5ST'
p320
sg5
S'Hirose'
p321
sa(dp322
g3
S'10103594-0001LF'
p323
sg5
S'FCI'
p324
sa(dp325
g3
S'480-37-1000'
p326
sg5
S'Molex'
p327
sa(dp328
g3
S'61729-1011BLF'
p329
sg5
S'FCI'
p330
sa(dp331
g3
S'10029449-001RLF'
p332
sg5
S'FCI'
p333
sa(dp334
g3
S'35RASMT4BHNTRX'
p335
sg5
S'Switchcraft'
p336
sa(dp337
g3
S'PJRAN1X1U01X'
p338
sg5
S'Switchcraft'
p339
sa(dp340
g3
S'J00-0065NL'
p341
sg5
S'Pulse'
p342
sa(dp343
g3
S'U.FL-R-SMT(10)'
p344
sg5
S'Hirose'
p345
sa(dp346
g3
S'68786-202LF'
p347
sg5
S'FCI'
p348
sa(dp349
g3
S'5-534237-8'
p350
sg5
S'TE Connectivity'
p351
sa(dp352
g3
S'9-146281-0'
p353
sg5
S'TE Connectivity'
p354
sa(dp355
g3
S'95278-101A06LF'
p356
sg5
S'FCI'
p357
sa(dp358
g3
S'BA2032SM'
p359
sg5
S'MPD'
p360
sa(dp361
g3
S'B2P-VH(LF)(SN)'
p362
sg5
S'JST'
p363
sa(dp364
g3
S'VHR-2N'
p365
sg5
S'JST'
p366
sa(dp367
g3
S'B3P-VH(LF)(SN)'
p368
sg5
S'JST'
p369
sa(dp370
g3
S'VHR-3N'
p371
sg5
S'JST'
p372
sa(dp373
g3
S'SVH-21T-P1.1'
p374
sg5
S'JST'
p375
sa(dp376
g3
S'S2B-XH-A(LF)(SN)'
p377
sg5
S'JST'
p378
sa(dp379
g3
S'XHP-2'
p380
sg5
S'JST'
p381
sa(dp382
g3
S'S3B-XH-A(LF)(SN)'
p383
sg5
S'JST'
p384
sa(dp385
g3
S'XHP-3'
p386
sg5
S'JST'
p387
sa(dp388
g3
S'S4B-XH-A(LF)(SN)'
p389
sg5
S'JST'
p390
sa(dp391
g3
S'XHP-4'
p392
sg5
S'JST'
p393
sa(dp394
g3
S'SXH-001T-P0.6'
p395
sg5
S'JST'
p396
sa(dp397
g3
S'S2B-PH-K-S(LF)(SN)'
p398
sg5
S'JST'
p399
sa(dp400
g3
S'S2B-PH-SM4-TB(LF)(SN)'
p401
sg5
S'JST'
p402
sa(dp403
g3
S'PHR-2'
p404
sg5
S'JST'
p405
sa(dp406
g3
S'SPH-002T-P0.5S'
p407
sg5
S'JST'
p408
sa(dp409
g3
S'1803578'
p410
sg5
S'Phoenix Contact'
p411
sa(dp412
g3
S'1803277'
p413
sg5
S'Phoenix Contact'
p414
sa(dp415
g3
S'SPU0409HD5H-PB'
p416
sg5
S'Knowles Acoustics'
p417
sa(dp418
g3
S'MMA8452QR1'
p419
sg5
S'Freescale Semiconductor'
p420
sa(dp421
g3
S'DS18B20U+'
p422
sg5
S'Maxim Integrated'
p423
sa(dp424
g3
S'MCP9808-E/MS'
p425
sg5
S'Microchip'
p426
sa(dp427
g3
S'L3GD20H'
p428
sg5
S'STMicroelectronics'
p429
sa(dp430
g3
S'SHT21'
p431
sg5
S'Sensirion'
p432
sa(dp433
g3
S'1812L050PR'
p434
sg5
S'Littelfuse'
p435
sa(dp436
g3
S'1812L075PR'
p437
sg5
S'Littelfuse'
p438
sa(dp439
g3
S'1812L110/33MR'
p440
sg5
S'Littelfuse'
p441
sa(dp442
g3
S'1812L160/12DR'
p443
sg5
S'Littelfuse'
p444
sa(dp445
g3
S'TL3342F160QG'
p446
sg5
S'E-Switch'
p447
sa(dp448
g3
S'1825289-1'
p449
sg5
S'TE Connectivity'
p450
sa(dp451
g3
S'B3U-3000P'
p452
sg5
S'Omron'
p453
sa(dp454
g3
S'UA7805CKTTR'
p455
sg5
S'Texas Instruments'
p456
sa(dp457
g3
S'LMS8117AMP-3.3/NOPB'
p458
sg5
S'Texas Instruments'
p459
sa(dp460
g3
S'LM1117IMP-5.0-NOPB'
p461
sg5
S'Texas Instruments'
p462
sa(dp463
g3
S'LP2985-33DBVR'
p464
sg5
S'Texas Instruments'
p465
sa(dp466
g3
S'LP2985-50DBVR'
p467
sg5
S'Texas Instruments'
p468
sa(dp469
g3
S'LMR12010YMKE/NOPB'
p470
sg5
S'Texas Instruments'
p471
sa(dp472
g3
S'LMR10510YMFE/NOPB'
p473
sg5
S'Texas Instruments'
p474
sa(dp475
g3
S'LM2576HVS-5.0/NOPB'
p476
sg5
S'Texas Instruments'
p477
sa(dp478
g3
S'SGTL5000XNAA3'
p479
sg5
S'Freescale Semiconductor'
p480
sa(dp481
g3
S'MAX232D'
p482
sg5
S'Texas Instruments'
p483
sa(dp484
g3
S'FT232RL-REEL'
p485
sg5
S'FTDI'
p486
sa(dp487
g3
S'W5500'
p488
sg5
S'WIZnet'
p489
sa(dp490
g3
S'HDG104-DN-2'
p491
sg5
S'H&D Wireless'
p492
sa(dp493
g3
S'CC2540F256RHAR'
p494
sg5
S'Texas Instruments'
p495
sa(dp496
g3
S'NRF51822-QFAA-T'
p497
sg5
S'Nordic'
p498
sa(dp499
g3
S'nRF905'
p500
sg5
S'Nordic'
p501
sa(dp502
g3
S'BAL-NRF01D3'
p503
sg5
S'STMicroelectronics'
p504
sa(dp505
g3
S'2450AT07A0100T'
p506
sg5
S'Johanson'
p507
sa(dp508
g3
S'CC3000MOD'
p509
sg5
S'Texas Instruments'
p510
sa(dp511
g3
S'2500AT44M0400E'
p512
sg5
S'Johanson'
p513
sa(dp514
g3
S'MCP73832T-2ACI/OT'
p515
sg5
S'Microchip'
p516
sa(dp517
g3
S'DRV8825PWP'
p518
sg5
S'Texas Instruments'
p519
sa(dp520
g3
S'L293DD'
p521
sg5
S'STMicroelectronics'
p522
sa(dp523
g3
S'TB6612FNG'
p524
sg5
S'Toshiba'
p525
sa(dp526
g3
S'LM358DR'
p527
sg5
S'Texas Instruments'
p528
sa(dp529
g3
S'LMV324IDR'
p530
sg5
S'Texas Instruments'
p531
sa(dp532
g3
S'FAN4174IS5X'
p533
sg5
S'Fairchild Semiconductor'
p534
sa(dp535
g3
S'NE555DR'
p536
sg5
S'Texas Instruments'
p537
sa(dp538
g3
S'DS1307ZN+'
p539
sg5
S'Maxim Integrated'
p540
sa(dp541
g3
S'S25FL204k0TMFI011'
p542
sg5
S'Spansion'
p543
sa(dp544
g3
S'24AA02T-I/OT'
p545
sg5
S'Microchip'
p546
sa(dp547
g3
S'CAT24C32WI-GT3'
p548
sg5
S'ON Semiconductor'
p549
sa(dp550
g3
S'ATMEGA328P-AU'
p551
sg5
S'Atmel'
p552
sa(dp553
g3
S'ATMEGA328P-PU'
p554
sg5
S'Atmel'
p555
sa(dp556
g3
S'ATMEGA1284P-AU'
p557
sg5
S'Atmel'
p558
sa(dp559
g3
S'ATMEGA2560V8AU'
p560
sg5
S'Atmel'
p561
sa(dp562
g3
S'ATTINY85-20SU'
p563
sg5
S'Atmel'
p564
sa(dp565
g3
S'ATTINY85-20PU'
p566
sg5
S'Atmel'
p567
sa(dp568
g3
S'"LPC1768FBD100'
p569
sg5
S'NXP'
p570
sa(dp571
g3
S'STM32F401RBT6'
p572
sg5
S'STMicroelectronics'
p573
sa(dp574
g3
S'MK22FN1M0VLH12'
p575
sg5
S'Freescale'
p576
sa(dp577
g3
S'MKL25Z128VLH4'
p578
sg5
S'Freescale'
p579
sa(dp580
g3
S'MSP430F2132IPW'
p581
sg5
S'Texas Instruments'
p582
sa(dp583
g3
S'A000066'
p584
sg5
S'Arduino'
p585
sa(dp586
g3
S'IMP001-US-R-ENG'
p587
sg5
S'Electric Imp'
p588
sa(dp589
g3
S''
sg5
S'Tessel'
p590
sa(dp591
g3
S''
sg5
S'pinoccio'
p592
sa(dp593
g3
S''
sg5
S'spark.io'
p594
sa(dp595
g3
S'317060005'
p596
sg5
S'WRTnode'
p597
sa(dp598
g3
S'BB-BBLK-000'
p599
sg5
S'BeagleBone Black'
p600
sa(dp601
g3
S'RASPBRRY-MODB-512M'
p602
sg5
S'Raspberry Pi'
p603
sa.