(lp1
(dp2
S'mpn'
p3
S''
sS'brand'
p4
S''
sa(dp5
g3
S'500R14N220JV4T'
p6
sg4
S'Johanson'
p7
sa(dp8
g3
S'MC0603N220J500CT'
p9
sg4
S'Multicomp'
p10
sa(dp11
g3
S'VJ0603A220KXQPW1BC'
p12
sg4
S'Vishay'
p13
sa(dp14
g3
S''
sg4
S''
sa(dp15
g3
S'CC0603KRX7R9BB104'
p16
sg4
S'Yageo'
p17
sa(dp18
g3
S'C0603C104K5RACTU'
p19
sg4
S'Kemet'
p20
sa(dp21
g3
S'GRM188R71H104KA93D'
p22
sg4
S'Murata'
p23
sa(dp24
g3
S'GRM188R60J105KA01D'
p25
sg4
S'Murata'
p26
sa(dp27
g3
S'C1608X5R1A105MT'
p28
sg4
S'TDK'
p29
sa(dp30
g3
S'EMVA250ADA470MF55G'
p31
sg4
S'UCC'
p32
sa(dp33
g3
S'AVE476M50X16T-F'
p34
sg4
S'Cornell'
p35
sa(dp36
g3
S''
sg4
S''
sa(dp37
g3
S'PJ-102A'
p38
sg4
S'CUI'
p39
sa(dp40
g3
S'USB-B1HSW6'
p41
sg4
S'On Shore'
p42
sa(dp43
g3
S'USB-B1HSB6'
p44
sg4
S'On Shore'
p45
sa(dp46
g3
S'67996-404HLF'
p47
sg4
S'FCI'
p48
sa(dp49
g3
S'67996-406HLF'
p50
sg4
S'FCI'
p51
sa(dp52
g3
S'M20-7820646'
p53
sg4
S'Harwin'
p54
sa(dp55
g3
S'5-534237-4'
p56
sg4
S'TE'
p57
sa(dp58
g3
S'960108-6202-AR'
p59
sg4
S'3M'
p60
sa(dp61
g3
S'M20-7820842'
p62
sg4
S'Harwin'
p63
sa(dp64
g3
S'M20-7821046'
p65
sg4
S'Harwin'
p66
sa(dp67
g3
S'5-534237-8'
p68
sg4
S'TE'
p69
sa(dp70
g3
S''
sg4
S''
sa(dp71
g3
S'ATS16B'
p72
sg4
S'CTS'
p73
sa(dp74
g3
S'ABL-16.000MHZ-B2'
p75
sg4
S'Abracon'
p76
sa(dp77
g3
S''
sg4
S''
sa(dp78
g3
S'CD1206-S01575'
p79
sg4
S'Bourns'
p80
sa(dp81
g3
S'S2M-13-F'
p82
sg4
S'Diodes Inc'
p83
sa(dp84
g3
S'S2J'
p85
sg4
S'Fairchild'
p86
sa(dp87
g3
S''
sg4
S''
sa(dp88
g3
S'BLM21PG221SN1D'
p89
sg4
S'Murata'
p90
sa(dp91
g3
S''
sg4
S''
sa(dp92
g3
S'MF-MSMF050-2'
p93
sg4
S'Bourns'
p94
sa(dp95
g3
S''
sg4
S''
sa(dp96
g3
S'ATMEGA16U2-MUR'
p97
sg4
S'Atmel'
p98
sa(dp99
g3
S''
sg4
S''
sa(dp100
g3
S'ATMEGA328P-PU'
p101
sg4
S'Atmel'
p102
sa(dp103
g3
S''
sg4
S''
sa(dp104
g3
S'LMV358IDGKR'
p105
sg4
S'TI'
p106
sa(dp107
g3
S'MCP6002-E/MS'
p108
sg4
S'Microchip'
p109
sa(dp110
g3
S'LP2985-33DBVR'
p111
sg4
S'TI'
p112
sa(dp113
g3
S'NCP1117ST50T3G'
p114
sg4
S'ON Semi'
p115
sa(dp116
g3
S''
sg4
S''
sa(dp117
g3
S'LG R971-KN-1-0-20-R18'
p118
sg4
S'Osram'
p119
sa(dp120
g3
S'598-8160-107F'
p121
sg4
S'Dialight'
p122
sa(dp123
g3
S'LTST-C171KSKT'
p124
sg4
S'Lite-On'
p125
sa(dp126
g3
S'APT2012YC'
p127
sg4
S'Kingbright'
p128
sa(dp129
g3
S''
sg4
S''
sa(dp130
g3
S'CAY16-220J4LF'
p131
sg4
S'Bourns'
p132
sa(dp133
g3
S'CAY16-102J4LF'
p134
sg4
S'Bourns'
p135
sa(dp136
g3
S'CAY16-103J4LF'
p137
sg4
S'Bourns'
p138
sa(dp139
g3
S'ERJ-3GEYJ105V'
p140
sg4
S'Panasonic'
p141
sa(dp142
g3
S'CR0603-JW-105GLF'
p143
sg4
S'Bourns'
p144
sa(dp145
g3
S''
sg4
S''
sa(dp146
g3
S''
sg4
S''
sa(dp147
g3
S'CSTCE16M0V53-R0'
p148
sg4
S'Murata'
p149
sa(dp150
g3
S''
sg4
S''
sa(dp151
g3
S'TS42031-160R-TR-7260'
p152
sg4
S'???'
p153
sa(dp154
g3
S''
sg4
S''
sa(dp155
g3
S'FDN340P'
p156
sg4
S'Fairchild'
p157
sa(dp158
g3
S''
sg4
S''
sa(dp159
g3
S'CG0603MLC-05E'
p160
sg4
S'Bourns'
p161
sa(dp162
g3
S''
sg4
S''
sa(dp163
g3
S''
sg4
S''
sa(dp164
g3
S''
sg4
S''
sa(dp165
g3
S''
sg4
S''
sa(dp166
g3
S''
sg4
S''
sa(dp167
g3
S''
sg4
S''
sa.