(lp1
(dp2
S'mpn'
p3
S'ERJ-2RKF33R0X'
p4
sS'brand'
p5
S'Panasonic'
p6
sa(dp7
g3
S'ERJ-2RKF1501X'
p8
sg5
S'Panasonic'
p9
sa(dp10
g3
S'ERJ-2RKF1002X'
p11
sg5
S'Panasonic'
p12
sa(dp13
g3
S'GRM1555C1H180FA01D'
p14
sg5
S'Murata'
p15
sa(dp16
g3
S'GRM188R71H104KA93D'
p17
sg5
S'Murata'
p18
sa(dp19
g3
S'C1608X7R1A225K080AC'
p20
sg5
S'TDK'
p21
sa(dp22
g3
S'APHHS1005CGCK'
p23
sg5
S'Kingbright'
p24
sa(dp25
g3
S'APHHS1005SURCK'
p26
sg5
S'Kingbright'
p27
sa(dp28
g3
S'APHHS1005QBC/D'
p29
sg5
S'Kingbright'
p30
sa(dp31
g3
S'MMBT3906'
p32
sg5
S'Fairchild Semiconductor'
p33
sa(dp34
g3
S'BAS40-05,215'
p35
sg5
S'NXP'
p36
sa(dp37
g3
S'PRTR5V0U2X,215'
p38
sg5
S'NXP'
p39
sa(dp40
g3
S'MIC5225-3.3YM5 TR'
p41
sg5
S'Micrel'
p42
sa(dp43
g3
S'LPC11U35FHI33/501'
p44
sg5
S'NXP'
p45
sa(dp46
g3
S'403C35D12M00000'
p47
sg5
S'CTS'
p48
sa(dp49
g3
S'M50-3500542'
p50
sg5
S'Harwin'
p51
sa(dp52
g3
S'ZX62RD-AB-5P8'
p53
sg5
S'Herosi'
p54
sa(dp55
g3
S'PTS810 SJM 250 SMTR LFS'
p56
sg5
S'C&K'
p57
sa.