(lp1
(dp2
S'mpn'
p3
S'FC-135'
p4
sS'brand'
p5
S'Xinhunjing'
p6
sa(dp7
g3
S'49S'
p8
sg5
S'Xinhunjing'
p9
sa(dp10
g3
S'49S/18PF'
p11
sg5
S'Xinhunjing'
p12
sa(dp13
g3
S'X053201602002'
p14
sg5
S'JINGPENGYUAN'
p15
sa(dp16
g3
S'5032/2P'
p17
sg5
S'Xinhunjing'
p18
sa(dp19
g3
S'5032/4P'
p20
sg5
S'Xinhunjing'
p21
sa(dp22
g3
S'49S8M'
p23
sg5
S'Xinhunjing'
p24
sa(dp25
g3
S'2N7002,215'
p26
sg5
S'NXP'
p27
sa(dp28
g3
S'CJ2302'
p29
sg5
S'CJ'
p30
sa(dp31
g3
S'Si2343CDS'
p32
sg5
S'Vishay Siliconix'
p33
sa(dp34
g3
S'CJ2305'
p35
sg5
S'CJ'
p36
sa(dp37
g3
S'SI2305DS-T1-E3'
p38
sg5
S'Vishay Siliconix'
p39
sa(dp40
g3
S'S9013'
p41
sg5
S'CJ'
p42
sa(dp43
g3
S'S8550'
p44
sg5
S''
sa(dp45
g3
S'S8050'
p46
sg5
S'CJ'
p47
sa(dp48
g3
S'S9014J6'
p49
sg5
S'Changjiang'
p50
sa(dp51
g3
S'KS-12065D03YA'
p52
sg5
S'Guangjixing'
p53
sa(dp54
g3
S''
sg5
S'AVX'
p55
sa(dp56
g3
S''
sg5
S'JWCO'
p57
sa(dp58
g3
S'KS100uF/16V 5X7'
p59
sg5
S'Jiaweicheng'
p60
sa(dp61
g3
S'TAJC107K010RNJ'
p62
sg5
S'AVX'
p63
sa(dp64
g3
S''
sg5
S'AVX'
p65
sa(dp66
g3
S'TAJB476K010RNJ'
p67
sg5
S'AVX'
p68
sa(dp69
g3
S''
sg5
S'AVX'
p70
sa(dp71
g3
S'TAJC226K025RNJ'
p72
sg5
S'AVX'
p73
sa(dp74
g3
S'TAJB226K010RNJ'
p75
sg5
S'AVX'
p76
sa(dp77
g3
S'GRM21BR61E106KA73L'
p78
sg5
S'Murata'
p79
sa(dp80
g3
S'CC0805KKX5R8BB106'
p81
sg5
S'YAGEO'
p82
sa(dp83
g3
S'TAJB106K016RNJ'
p84
sg5
S'AVX'
p85
sa(dp86
g3
S'TAJA106K016RNJ'
p87
sg5
S'AVX'
p88
sa(dp89
g3
S'TAJA106K010RNJ'
p90
sg5
S'AVX'
p91
sa(dp92
g3
S'CC1206KKX5R9BB475'
p93
sg5
S'YAGEO'
p94
sa(dp95
g3
S'CC0805KKX5R8BB475'
p96
sg5
S'YAGEO'
p97
sa(dp98
g3
S'CC0603KRX5R6BB475'
p99
sg5
S'YAGEO'
p100
sa(dp101
g3
S'CC0402MRX5R5BB475'
p102
sg5
S'YAGEO'
p103
sa(dp104
g3
S'CC1206KKX7R9BB225'
p105
sg5
S'YAGEO'
p106
sa(dp107
g3
S'CC0805KKX7R8BB225'
p108
sg5
S'YAGEO'
p109
sa(dp110
g3
S'CC0805KKX7R8BB105'
p111
sg5
S'YAGEO'
p112
sa(dp113
g3
S'CC0603KRX7R8BB105'
p114
sg5
S'YAGEO'
p115
sa(dp116
g3
S'CC0603KRX7R8BB224'
p117
sg5
S'YAGEO'
p118
sa(dp119
g3
S'CC0805KRX7R9BB104'
p120
sg5
S'YAGEO'
p121
sa(dp122
g3
S'CC0603KRX7R9BB104'
p123
sg5
S'YAGEO'
p124
sa(dp125
g3
S'CC0402KRX7R8BB104'
p126
sg5
S'YAGEO'
p127
sa(dp128
g3
S'CC0402KRX7R7BB104'
p129
sg5
S'YAGEO'
p130
sa(dp131
g3
S'CC0603KRX7R9BB333'
p132
sg5
S'YAGEO'
p133
sa(dp134
g3
S'CC0603KRX7R9BB223'
p135
sg5
S'YAGEO'
p136
sa(dp137
g3
S''
sg5
S''
sa(dp138
g3
S'CC0603KRX7R9BB103'
p139
sg5
S'YAGEO'
p140
sa(dp141
g3
S'CC0603KRX7R9BB472'
p142
sg5
S'YAGEO'
p143
sa(dp144
g3
S'CC0603KRX7R9BB222'
p145
sg5
S'YAGEO'
p146
sa(dp147
g3
S'CC0603KRX7R9BB102'
p148
sg5
S'YAGEO'
p149
sa(dp150
g3
S''
sg5
S''
sa(dp151
g3
S'CC0603JRNPO9BN221'
p152
sg5
S'YAGEO'
p153
sa(dp154
g3
S'CC0402JRNPO9BN221'
p155
sg5
S'YAGEO'
p156
sa(dp157
g3
S'CC0603JRNPO9BN101'
p158
sg5
S'YAGEO'
p159
sa(dp160
g3
S'CC0603JRNPO9BN390'
p161
sg5
S'YAGEO'
p162
sa(dp163
g3
S'CC0603JRNPO9BN270'
p164
sg5
S'YAGEO'
p165
sa(dp166
g3
S'CC0603JRNPO9BN220'
p167
sg5
S'YAGEO'
p168
sa(dp169
g3
S'CC0402JRNPO9BN220'
p170
sg5
S'YAGEO'
p171
sa(dp172
g3
S'CC0603JRNPO9BN150'
p173
sg5
S'YAGEO'
p174
sa(dp175
g3
S'CC0603JRNPO9BN120'
p176
sg5
S'YAGEO'
p177
sa(dp178
g3
S'CC0603DRNPO9BN8R2'
p179
sg5
S'YAGEO'
p180
sa(dp181
g3
S'P125-1102A0BS116A3'
p182
sg5
S'YXCON'
p183
sa(dp184
g3
S'P125-1102A0BS116A2'
p185
sg5
S'YXCON'
p186
sa(dp187
g3
S'P125-1102A0BS116A1'
p188
sg5
S'YXCON'
p189
sa(dp190
g3
S''
sg5
S'YXCON'
p191
sa(dp192
g3
S'P125-1103A0BS116A1'
p193
sg5
S'YXCON'
p194
sa(dp195
g3
S'P125-1103A0BR138A1'
p196
sg5
S'YXCON'
p197
sa(dp198
g3
S'P125-12A1BS116A1'
p199
sg5
S'YXCON'
p200
sa(dp201
g3
S'P125-1203A0BS116A2'
p202
sg5
S'YXCON'
p203
sa(dp204
g3
S'P125-1203A0BS116A1'
p205
sg5
S'YXCON'
p206
sa(dp207
g3
S'P125-1104A0BS116A1'
p208
sg5
S'YXCON'
p209
sa(dp210
g3
S'P125-1106A0BS116A1'
p211
sg5
S'YXCON'
p212
sa(dp213
g3
S'P125-1106A1BS116A1'
p214
sg5
S'YXCON'
p215
sa(dp216
g3
S'P125-1106A0BS116A2'
p217
sg5
S'YXCON'
p218
sa(dp219
g3
S'P125-1106A0BS195A1'
p220
sg5
S'YXCON'
p221
sa(dp222
g3
S'P125-1106B0BA2'
p223
sg5
S'YXCON'
p224
sa(dp225
g3
S'P125-1106B0BA1'
p226
sg5
S'YXCON'
p227
sa(dp228
g3
S'P125-1106A0BR138A1'
p229
sg5
S'YXCON'
p230
sa(dp231
g3
S'P125-1106A0BR138A2'
p232
sg5
S'YXCON'
p233
sa(dp234
g3
S'P125-1108A0BS116A1'
p235
sg5
S'YXCON'
p236
sa(dp237
g3
S'P125-1108A0BS116A2'
p238
sg5
S'YXCON'
p239
sa(dp240
g3
S'P125-1108A1BS116A1'
p241
sg5
S'YXCON'
p242
sa(dp243
g3
S'P125-1108B0BA1'
p244
sg5
S'YXCON'
p245
sa(dp246
g3
S'P125-1108B0BA2'
p247
sg5
S'YXCON'
p248
sa(dp249
g3
S'P125-1108A0BR138A1'
p250
sg5
S'YXCON'
p251
sa(dp252
g3
S'P220-1110A0BS087A1'
p253
sg5
S'YXCON'
p254
sa(dp255
g3
S'P125-1110A0BR138A1'
p256
sg5
S'YXCON'
p257
sa(dp258
g3
S''
sg5
S'YXCON'
p259
sa(dp260
g3
S'P220-1140A0BS087A1'
p261
sg5
S'YXCON'
p262
sa(dp263
g3
S'P125-1140B0BA1'
p264
sg5
S'YXCON'
p265
sa(dp266
g3
S'P125-1140A0BR138A2'
p267
sg5
S'YXCON'
p268
sa(dp269
g3
S'F185-1102A1BSYA1'
p270
sg5
S'YXCON'
p271
sa(dp272
g3
S'GSL009-5.0-02P-12'
p273
sg5
S'SENGER'
p274
sa(dp275
g3
S'F185-1103A1BRYA1'
p276
sg5
S'YXCON'
p277
sa(dp278
g3
S'F185-1203A1BMYA1'
p279
sg5
S'YXCON'
p280
sa(dp281
g3
S'F185-1203A1BSYA1'
p282
sg5
S'YXCON'
p283
sa(dp284
g3
S'F185-1104A1BSYA1'
p285
sg5
S'YXCON'
p286
sa(dp287
g3
S''
sg5
S'YXCON'
p288
sa(dp289
g3
S'F185-1106A1BSYA3'
p290
sg5
S'YXCON'
p291
sa(dp292
g3
S'F185-1106A1BSYA2'
p293
sg5
S'YXCON'
p294
sa(dp295
g3
S'F185-1106A1BSYA1'
p296
sg5
S'YXCON'
p297
sa(dp298
g3
S'F185-1106A1BSYA4'
p299
sg5
S'YXCON'
p300
sa(dp301
g3
S'F185-1106A1BSYC1'
p302
sg5
S'YXCON'
p303
sa(dp304
g3
S''
sg5
S'YXCON'
p305
sa(dp306
g3
S'F185-1106A1BRYA1'
p307
sg5
S'YXCON'
p308
sa(dp309
g3
S''
sg5
S'YXCON'
p310
sa(dp311
g3
S'F185-1108A1BSYC1'
p312
sg5
S'YXCON'
p313
sa(dp314
g3
S'F185-1108A1BSYA1'
p315
sg5
S'YXCON'
p316
sa(dp317
g3
S'F185-1108A1BSYC1'
p318
sg5
S'YXCON'
p319
sa(dp320
g3
S'F185-1108A1BSYC1'
p321
sg5
S'YXCON'
p322
sa(dp323
g3
S'F185-2108A1BSYA1'
p324
sg5
S'YXCON'
p325
sa(dp326
g3
S'F185-AA08A2BRYA1'
p327
sg5
S'YXCON'
p328
sa(dp329
g3
S''
sg5
S'YAGEO'
p330
sa(dp331
g3
S'F185-1110A1BSYA1'
p332
sg5
S'YAGEO'
p333
sa(dp334
g3
S'F185-1110A1BSYC1'
p335
sg5
S'YXCON'
p336
sa(dp337
g3
S'F243-1110A1BSUA2'
p338
sg5
S'YXCON'
p339
sa(dp340
g3
S'F243-1110A1BSUC1'
p341
sg5
S'YXCON'
p342
sa(dp343
g3
S'F243-1110A1BSUA1'
p344
sg5
S'YXCON'
p345
sa(dp346
g3
S'F185-1110A1BRYA1'
p347
sg5
S'YXCON'
p348
sa(dp349
g3
S''
sg5
S'TAIFENG'
p350
sa(dp351
g3
S''
sg5
S'NSTECH'
p352
sa(dp353
g3
S''
sg5
S'NSTECH'
p354
sa(dp355
g3
S'592012411010'
p356
sg5
S'Leyconn'
p357
sa(dp358
g3
S''
sg5
S''
sa(dp359
g3
S''
sg5
S'Baisite'
p360
sa(dp361
g3
S'ST-TF-003A'
p362
sg5
S'SUNTECH'
p363
sa(dp364
g3
S''
sg5
S'BEST'
p365
sa(dp366
g3
S'VSHO-TF08-5501'
p367
sg5
S'VSHOTECH'
p368
sa(dp369
g3
S''
sg5
S'SUNTECH'
p370
sa(dp371
g3
S''
sg5
S'KEYUE'
p372
sa(dp373
g3
S'ST-USB-003A'
p374
sg5
S'suntech'
p375
sa(dp376
g3
S'ST-USB-001E'
p377
sg5
S'SUNTECH'
p378
sa(dp379
g3
S'ST-USB-001G'
p380
sg5
S'SUNTECH'
p381
sa(dp382
g3
S'ST-USB-001L'
p383
sg5
S'SUNTECH'
p384
sa(dp385
g3
S'ST-USB-002A'
p386
sg5
S'SUNTECH'
p387
sa(dp388
g3
S'ST-USB-013A'
p389
sg5
S'SUNTECH'
p390
sa(dp391
g3
S''
sg5
S'GOOSVN'
p392
sa(dp393
g3
S''
sg5
S'GOOSVN'
p394
sa(dp395
g3
S''
sg5
S'GOOSVN'
p396
sa(dp397
g3
S'DC-005'
p398
sg5
S'BEST'
p399
sa(dp400
g3
S''
sg5
S'BEST'
p401
sa(dp402
g3
S''
sg5
S''
sa(dp403
g3
S''
sg5
S''
sa(dp404
g3
S''
sg5
S''
sa(dp405
g3
S''
sg5
S'TAIFENG'
p406
sa(dp407
g3
S''
sg5
S'TAIFENG'
p408
sa(dp409
g3
S''
sg5
S'TAIFENG'
p410
sa(dp411
g3
S''
sg5
S'I-PEX'
p412
sa(dp413
g3
S'ST-SIM-004B'
p414
sg5
S'suntech'
p415
sa(dp416
g3
S'VSHO-21-3301'
p417
sg5
S'KQWI'
p418
sa(dp419
g3
S'ST-HD-010G'
p420
sg5
S'SUNTECH'
p421
sa(dp422
g3
S'RJ45-MJ6-BX11-RVS1T073'
p423
sg5
S'HELING'
p424
sa(dp425
g3
S'RJ45-MJ88-BX11-RVSL2'
p426
sg5
S'HL'
p427
sa(dp428
g3
S'19-217-R6C-AL1M2VY-3T'
p429
sg5
S'Everlight'
p430
sa(dp431
g3
S'17-215SURC/S530-A2/TR8'
p432
sg5
S'Everlight'
p433
sa(dp434
g3
S''
sg5
S'Chengguangxing'
p435
sa(dp436
g3
S'UR502DC'
p437
sg5
S'Chengguangxing'
p438
sa(dp439
g3
S'17-215SYGC/S530-E2/TR8'
p440
sg5
S'Everlight'
p441
sa(dp442
g3
S'19-217-G7C-AN1P2-3T'
p443
sg5
S'Everlight'
p444
sa(dp445
g3
S''
sg5
S'Chengguangxing'
p446
sa(dp447
g3
S'G502DC'
p448
sg5
S'Chengguangxing'
p449
sa(dp450
g3
S'17-215UYC/S530-A3/TR8'
p451
sg5
S'Everlight'
p452
sa(dp453
g3
S'19-217-Y5C-AM1N1VY-3T'
p454
sg5
S'Everlight'
p455
sa(dp456
g3
S'ADL-0603W'
p457
sg5
S'Chengguangxing'
p458
sa(dp459
g3
S'CZXR-80RGB03-A'
p460
sg5
S'Chengguangxing'
p461
sa(dp462
g3
S'19-217-BHC-ZL1M2RY-3T'
p463
sg5
S'Everlight'
p464
sa(dp465
g3
S'BL-HB337A-AV-TRB'
p466
sg5
S'Bright'
p467
sa(dp468
g3
S'504BW'
p469
sg5
S''
sa(dp470
g3
S'504BC'
p471
sg5
S'Chengguangxing'
p472
sa(dp473
g3
S'16-219A/T2D-AR2T1QY/3T'
p474
sg5
S'Everlight'
p475
sa(dp476
g3
S'UO504WC'
p477
sg5
S'Chengguangxing'
p478
sa(dp479
g3
S'504WC'
p480
sg5
S'Chengguangxing'
p481
sa(dp482
g3
S'30SVC4A'
p483
sg5
S'Chengguangxing'
p484
sa(dp485
g3
S'FZR50RGB00T-C'
p486
sg5
S'CHENGGUANGXING'
p487
sa(dp488
g3
S'5050RGB'
p489
sg5
S'CHENGGUANGXING'
p490
sa(dp491
g3
S'CESD5V0D1'
p492
sg5
S'CJ'
p493
sa(dp494
g3
S'CESD3V3AP'
p495
sg5
S'CJ'
p496
sa(dp497
g3
S'1N4004'
p498
sg5
S'MIC'
p499
sa(dp500
g3
S'LL4148ST'
p501
sg5
S'ST'
p502
sa(dp503
g3
S'CESD5V0AP'
p504
sg5
S'CJ'
p505
sa(dp506
g3
S'BAT54C-215'
p507
sg5
S'NXP'
p508
sa(dp509
g3
S'MBR0520LT1G'
p510
sg5
S'ON Semiconductor'
p511
sa(dp512
g3
S'B5819W'
p513
sg5
S'Micro Commercial Components'
p514
sa(dp515
g3
S'1N5819'
p516
sg5
S''
sa(dp517
g3
S'SS54B'
p518
sg5
S'CJ'
p519
sa(dp520
g3
S'1N4007'
p521
sg5
S'CJ'
p522
sa(dp523
g3
S'1N4148'
p524
sg5
S'CJ'
p525
sa(dp526
g3
S'SS0520-7-F'
p527
sg5
S''
sa(dp528
g3
S'KT8-1000SMD1206'
p529
sg5
S'TIANRUI'
p530
sa(dp531
g3
S'KT13-0750SMD'
p532
sg5
S'Bourns'
p533
sa(dp534
g3
S'SMD1210R075SF'
p535
sg5
S'Darong'
p536
sa(dp537
g3
S''
sg5
S'TIANRUI'
p538
sa(dp539
g3
S''
sg5
S'TIANRUI'
p540
sa(dp541
g3
S'ATMEGA328P-AU'
p542
sg5
S'Atmel'
p543
sa(dp544
g3
S'ATMEGA328P-PU'
p545
sg5
S'Atmel'
p546
sa(dp547
g3
S'ATMEGA32U4-AU'
p548
sg5
S'Atmel'
p549
sa(dp550
g3
S'ATMEGA2560-16AU'
p551
sg5
S'Atmel'
p552
sa(dp553
g3
S'ATMEGA8A-AU'
p554
sg5
S'Atmel'
p555
sa(dp556
g3
S'LPC11U35FHI33/501'
p557
sg5
S'NXP'
p558
sa(dp559
g3
S'MP1496DJ'
p560
sg5
S'Monolithic Power Systems'
p561
sa(dp562
g3
S'XC6206P302MR'
p563
sg5
S'Torex'
p564
sa(dp565
g3
S'XC6206P252MR-G'
p566
sg5
S'Torex'
p567
sa(dp568
g3
S'XC6206P332MR-G'
p569
sg5
S'TOREX'
p570
sa(dp571
g3
S'XC6204B332MR'
p572
sg5
S'Torex Semiconductor Ltd'
p573
sa(dp574
g3
S'LM317EMP'
p575
sg5
S'TI'
p576
sa(dp577
g3
S'ETA3406S2F-T'
p578
sg5
S'ETA solution'
p579
sa(dp580
g3
S'AIC1896GG'
p581
sg5
S'AIC'
p582
sa(dp583
g3
S'CJT1117-5.0'
p584
sg5
S'CJ'
p585
sa(dp586
g3
S'CJT1117-3.3'
p587
sg5
S'CJ'
p588
sa(dp589
g3
S'CJA1117B-3.3'
p590
sg5
S'CJ'
p591
sa(dp592
g3
S'CN3065'
p593
sg5
S'CONSONANCE'
p594
sa(dp595
g3
S'CJ78M05'
p596
sg5
S'CJ'
p597
sa(dp598
g3
S'SN74LVC1G125DCKR'
p599
sg5
S'TI'
p600
sa(dp601
g3
S'74VHC125MTCX'
p602
sg5
S'Fairchild'
p603
sa(dp604
g3
S'TM1636'
p605
sg5
S'TITAN'
p606
sa(dp607
g3
S'RT9167A-33PB'
p608
sg5
S'RichTek'
p609
sa(dp610
g3
S'L298P'
p611
sg5
S'ST'
p612
sa(dp613
g3
S'LMV324IDR'
p614
sg5
S'Texas Instruments'
p615
sa(dp616
g3
S'LM358DR'
p617
sg5
S'Texas Instruments'
p618
sa(dp619
g3
S'LMV358ID'
p620
sg5
S'TI'
p621
sa(dp622
g3
S'LM293D'
p623
sg5
S'TI'
p624
sa(dp625
g3
S'LM2904DR'
p626
sg5
S'TI'
p627
sa(dp628
g3
S'MCP2551-I/SN'
p629
sg5
S'Microchip'
p630
sa(dp631
g3
S'MCP2515T-I/SO'
p632
sg5
S'Microchip'
p633
sa(dp634
g3
S'FT232RL'
p635
sg5
S'FTDI'
p636
sa(dp637
g3
S'DS1307ZN'
p638
sg5
S'Maxim Integrated'
p639
sa(dp640
g3
S'DS1337S+'
p641
sg5
S'Maxim Integrated'
p642
sa(dp643
g3
S'CSAB0630-100M'
p644
sg5
S'CODACA'
p645
sa(dp646
g3
S'SPD3D16-4R7M'
p647
sg5
S'CODACA'
p648
sa(dp649
g3
S'BLM18AG121SN1D'
p650
sg5
S'Murata'
p651
sa(dp652
g3
S'LY190-128064'
p653
sg5
S'Liyuan'
p654
sa(dp655
g3
S'HLS8L-DC5V-S-C'
p656
sg5
S'HELISHUN'
p657
sa(dp658
g3
S'RC0603JR-070RL'
p659
sg5
S'YAGEO'
p660
sa(dp661
g3
S'RC0402JR-070RL'
p662
sg5
S'YAGEO'
p663
sa(dp664
g3
S'RC0402JR-071R5L'
p665
sg5
S'YAGEO'
p666
sa(dp667
g3
S'RC0603JR-0710RL'
p668
sg5
S'YAGEO'
p669
sa(dp670
g3
S'RC0603FR-0710RL'
p671
sg5
S'YAGEO'
p672
sa(dp673
g3
S'RC1206JR-0713RL'
p674
sg5
S'YAGEO'
p675
sa(dp676
g3
S'RC0603JR-0715RL'
p677
sg5
S'YAGEO'
p678
sa(dp679
g3
S'RC0603JR-0722RL'
p680
sg5
S'YAGEO'
p681
sa(dp682
g3
S'RC0805JR-0722RL'
p683
sg5
S'YAGEO'
p684
sa(dp685
g3
S'RC0603JR-0733RL'
p686
sg5
S'YAGEO'
p687
sa(dp688
g3
S'RC0603FR-0749R9L'
p689
sg5
S'YAGEO'
p690
sa(dp691
g3
S'RC0805JR-0768RL'
p692
sg5
S'YAGEO'
p693
sa(dp694
g3
S'RC0603JR-0768RL'
p695
sg5
S'YAGEO'
p696
sa(dp697
g3
S'RC0603JR-0775RL'
p698
sg5
S'YAGEO'
p699
sa(dp700
g3
S'RC1206JR-07100RL'
p701
sg5
S'YAGEO'
p702
sa(dp703
g3
S'RC0805JR-07100RL'
p704
sg5
S'YAGEO'
p705
sa(dp706
g3
S'RC0603JR-07100RL'
p707
sg5
S'YAGEO'
p708
sa(dp709
g3
S'RC0402JR-07100RL'
p710
sg5
S'YAGEO'
p711
sa(dp712
g3
S'RC0805JR-07120RL'
p713
sg5
S'YAGEO'
p714
sa(dp715
g3
S'RC0805JR-07220RL'
p716
sg5
S'YAGEO'
p717
sa(dp718
g3
S'RC0603JR-07220RL'
p719
sg5
S'YAGEO'
p720
sa(dp721
g3
S'RC0603FR-07330RL'
p722
sg5
S'YAGEO'
p723
sa(dp724
g3
S'RC0805JR-07390RL'
p725
sg5
S'YAGEO'
p726
sa(dp727
g3
S'RC0603JR-07390RL'
p728
sg5
S'YAGEO'
p729
sa(dp730
g3
S'RC0603JR-07470RL'
p731
sg5
S'YAGEO'
p732
sa(dp733
g3
S'RC0603JR-07510RL'
p734
sg5
S'YAGEO'
p735
sa(dp736
g3
S'RC0603JR-07620RL'
p737
sg5
S'YAGEO'
p738
sa(dp739
g3
S'RC0805JR-071KL'
p740
sg5
S'YAGEO'
p741
sa(dp742
g3
S'RC0603FR-071KL'
p743
sg5
S'YAGEO'
p744
sa(dp745
g3
S'RC0402JR-071KL'
p746
sg5
S'YAGEO'
p747
sa(dp748
g3
S'Chip Array Series 1%,5%'
p749
sg5
S'Royalohm'
p750
sa(dp751
g3
S'SX3362P'
p752
sg5
S'BEST'
p753
sa(dp754
g3
S'RC0603JR-071K1L'
p755
sg5
S'YAGEO'
p756
sa(dp757
g3
S'RC0603FR-071K2L'
p758
sg5
S'YAGEO'
p759
sa(dp760
g3
S'RC0805FR-071K5L'
p761
sg5
S'YAGEO'
p762
sa(dp763
g3
S'RC0603FR-071K5L'
p764
sg5
S'YAGEO'
p765
sa(dp766
g3
S'RC0805JR-071K8L'
p767
sg5
S'YAGEO'
p768
sa(dp769
g3
S'RC0603FR-071K8L'
p770
sg5
S'YAGEO'
p771
sa(dp772
g3
S'RC0805JR-072KL'
p773
sg5
S'YAGEO'
p774
sa(dp775
g3
S'RC0603JR-072KL'
p776
sg5
S'YAGEO'
p777
sa(dp778
g3
S'RC0805JR-072K2L'
p779
sg5
S'YAGEO'
p780
sa(dp781
g3
S'RC0603FR-073KL'
p782
sg5
S'YAGEO'
p783
sa(dp784
g3
S'RC0805JR-073K3L'
p785
sg5
S'YAGEO'
p786
sa(dp787
g3
S'RC0603FR-073K3L'
p788
sg5
S'YAGEO'
p789
sa(dp790
g3
S'RC0402JR-073K3L'
p791
sg5
S'YAGEO'
p792
sa(dp793
g3
S'RC0603JR-073K9L'
p794
sg5
S'YAGEO'
p795
sa(dp796
g3
S'RC0603JR-074K7L'
p797
sg5
S'YAGEO'
p798
sa(dp799
g3
S'RC0805JR-074K7L'
p800
sg5
S'YAGEO'
p801
sa(dp802
g3
S''
sg5
S''
sa(dp803
g3
S'RC0603JR-075K6L'
p804
sg5
S'YAGEO'
p805
sa(dp806
g3
S'RC0805JR-078K2L'
p807
sg5
S'YAGEO'
p808
sa(dp809
g3
S'RC0805FR-0710KL'
p810
sg5
S'YAGEO'
p811
sa(dp812
g3
S'RC0805JR-0710KL'
p813
sg5
S'YAGEO'
p814
sa(dp815
g3
S'RC0603FR-0710KL'
p816
sg5
S'YAGEO'
p817
sa(dp818
g3
S'RC0402JR-0710KL'
p819
sg5
S'YAGEO'
p820
sa(dp821
g3
S''
sg5
S'Royalohm'
p822
sa(dp823
g3
S'SX3362P'
p824
sg5
S'BEST'
p825
sa(dp826
g3
S'RC0603FR-0712KL'
p827
sg5
S'YAGEO'
p828
sa(dp829
g3
S'RC0402JR-0712KL'
p830
sg5
S'YAGEO'
p831
sa(dp832
g3
S'RC0805JR-0715KL'
p833
sg5
S'YAGEO'
p834
sa(dp835
g3
S'RC0603JR-0715KL'
p836
sg5
S'YAGEO'
p837
sa(dp838
g3
S'RC0603FR-0720KL'
p839
sg5
S'YAGEO'
p840
sa(dp841
g3
S'RC0603JR-0720KL'
p842
sg5
S'YAGEO'
p843
sa(dp844
g3
S'RC0805JR-0722KL'
p845
sg5
S'YAGEO'
p846
sa(dp847
g3
S'RC0603JR-0722KL'
p848
sg5
S'YAGEO'
p849
sa(dp850
g3
S'RC0603FR-0724KL'
p851
sg5
S'YAGEO'
p852
sa(dp853
g3
S'RC0603JR-0727KL'
p854
sg5
S'YAGEO'
p855
sa(dp856
g3
S'RC0603FR-0730KL'
p857
sg5
S'YAGEO'
p858
sa(dp859
g3
S'RC0805FR-0747KL'
p860
sg5
S'YAGEO'
p861
sa(dp862
g3
S'RC0603JR-0747KL'
p863
sg5
S'YAGEO'
p864
sa(dp865
g3
S'RC0603JR-0751KL'
p866
sg5
S'YAGEO'
p867
sa(dp868
g3
S'RC0805JR-0756KL'
p869
sg5
S'YAGEO'
p870
sa(dp871
g3
S'RC0603FR-0768KL'
p872
sg5
S'YAGEO'
p873
sa(dp874
g3
S'RC0603FR-0782KL'
p875
sg5
S'YAGEO'
p876
sa(dp877
g3
S'RC0805FR-07100KL'
p878
sg5
S'YAGEO'
p879
sa(dp880
g3
S'RC0603FR-07100KL'
p881
sg5
S'YAGEO'
p882
sa(dp883
g3
S'SX3362P'
p884
sg5
S'BEST'
p885
sa(dp886
g3
S'RC0603JR-07150KL'
p887
sg5
S'YAGEO'
p888
sa(dp889
g3
S'RC0603FR-07150KL'
p890
sg5
S'YAGEO'
p891
sa(dp892
g3
S'RC0603JR-07200KL'
p893
sg5
S'YAGEO'
p894
sa(dp895
g3
S'JML3266W-200K'
p896
sg5
S'BEST'
p897
sa(dp898
g3
S'RC0603FR-07680KL'
p899
sg5
S'YAGEO'
p900
sa(dp901
g3
S'RC0603FR-071ML'
p902
sg5
S'YAGEO'
p903
sa(dp904
g3
S'RC0603FR-072ML'
p905
sg5
S'YAGEO'
p906
sa(dp907
g3
S'RC0603JR-074M7L'
p908
sg5
S'YAGEO'
p909
sa(dp910
g3
S'RC0603JR-0710ML'
p911
sg5
S'YAGEO'
p912
sa(dp913
g3
S'RC0603FR-0710ML'
p914
sg5
S'YAGEO'
p915
sa(dp916
g3
S'Photoresistor-5528'
p917
sg5
S'Keyue'
p918
sa(dp919
g3
S'AM2302'
p920
sg5
S''
sa(dp921
g3
S'DHT11'
p922
sg5
S''
sa(dp923
g3
S'LTH1550-01'
p924
sg5
S'Lite-On Technology Corporation'
p925
sa(dp926
g3
S'RPR-220'
p927
sg5
S'ROHM'
p928
sa(dp929
g3
S'YG1006'
p930
sg5
S'Xinde'
p931
sa(dp932
g3
S'TSAL6200'
p933
sg5
S'Vishay'
p934
sa(dp935
g3
S'TM2291'
p936
sg5
S'Titanmec'
p937
sa(dp938
g3
S'LHI778'
p939
sg5
S'PreKinElmer'
p940
sa(dp941
g3
S'FR2259'
p942
sg5
S'Coto Technology'
p943
sa(dp944
g3
S''
sg5
S'Shuoye'
p945
sa(dp946
g3
S''
sg5
S''
sa(dp947
g3
S''
sg5
S''
sa(dp948
g3
S'TS-1101F'
p949
sg5
S'Baisite'
p950
sa(dp951
g3
S'TS-1188E'
p952
sg5
S'BEST'
p953
sa(dp954
g3
S'DTSM-62K-S-V-T/R(SN431)'
p955
sg5
S'DIPTRONICS'
p956
sa(dp957
g3
S'TS-1109'
p958
sg5
S'BEST'
p959
sa(dp960
g3
S'MS-22D18 G2 ROHS'
p961
sg5
S'Deyilong'
p962
sa(dp963
g3
S'MMBT3904LT1G'
p964
sg5
S'ON Semiconductor'
p965
sa(dp966
g3
S'MAX1555EZK+T'
p967
sg5
S'Maxim'
p968
sa(dp969
g3
S'LPC11U24FBD64/401'
p970
sg5
S'NXP'
p971
sa(dp972
g3
S'LPC1114FN28'
p973
sg5
S'NXP'
p974
sa(dp975
g3
S'ADXL345BCCZ-RL'
p976
sg5
S'Analog Devices Inc'
p977
sa(dp978
g3
S'LPC1768FBD100'
p979
sg5
S'NXP'
p980
sa(dp981
g3
S'MAX232D'
p982
sg5
S'Texas Instruments'
p983
sa(dp984
g3
S'HLS8L-DC3V-S-C'
p985
sg5
S'HELISHUN'
p986
sa(dp987
g3
S'LSM7-629C'
p988
sg5
S'BEST'
p989
sa(dp990
g3
S'WS2812B'
p991
sg5
S'worldsemi'
p992
sa(dp993
g3
S'ANT8030-2R4-01A'
p994
sg5
S'TDK'
p995
sa(dp996
g3
S'AN9520'
p997
sg5
S'RainSun'
p998
sa(dp999
g3
S'3020-1766'
p1000
sg5
S'FEIYUXIN'
p1001
sa(dp1002
g3
S'IPEX-PCB-113-L42'
p1003
sg5
S'FEIYUXIN'
p1004
sa(dp1005
g3
S'HY-GLS11BX'
p1006
sg5
S'AYIA'
p1007
sa(dp1008
g3
S'BQ500211RGZR'
p1009
sg5
S'TEXAS'
p1010
sa(dp1011
g3
S'NCP18WF104F03RC'
p1012
sg5
S'Murata'
p1013
sa(dp1014
g3
S'CAT24C256WI-GT3'
p1015
sg5
S'ON Semiconductor'
p1016
sa(dp1017
g3
S'SIM800H'
p1018
sg5
S'Simcom'
p1019
sa(dp1020
g3
S'SIM900'
p1021
sg5
S'Simcom'
p1022
sa(dp1023
g3
S'HLS-14F3L-DC12V-C'
p1024
sg5
S'HELISHUN'
p1025
sa(dp1026
g3
S'MC33932VW'
p1027
sg5
S'Freescale'
p1028
sa(dp1029
g3
S'CH340T'
p1030
sg5
S'WCH'
p1031
sa(dp1032
g3
S'nRF51822;'
p1033
sg5
S'Nordic Semiconductor'
p1034
sa(dp1035
g3
S'nRF8001-R2Q32'
p1036
sg5
S'Nordic Semiconductor'
p1037
sa(dp1038
g3
S'W5500'
p1039
sg5
S'WIZnet'
p1040
sa(dp1041
g3
S'RC0603FR-076K8L'
p1042
sg5
S'YAGEO'
p1043
sa(dp1044
g3
S'RC0805JR-076K8L'
p1045
sg5
S'YAGEO'
p1046
sa(dp1047
g3
S'RC0402JR-07220KL'
p1048
sg5
S'YAGEO'
p1049
sa(dp1050
g3
S'RC0805JR-07220KL'
p1051
sg5
S'YAGEO'
p1052
sa(dp1053
g3
S'RC0603JR-07220KL'
p1054
sg5
S'YAGEO'
p1055
sa(dp1056
g3
S'GRM1555C1H1R2BA01D'
p1057
sg5
S'Murata'
p1058
sa(dp1059
g3
S'CC0603CRNPO9BN1R2'
p1060
sg5
S'YAGEO'
p1061
sa(dp1062
g3
S'GRM1555C1H1R8BA01D'
p1063
sg5
S'Murata'
p1064
sa(dp1065
g3
S'LQP15MN3N9B02D'
p1066
sg5
S'Murata'
p1067
sa(dp1068
g3
S'LQG18HN3N9S00#'
p1069
sg5
S'Murata'
p1070
sa(dp1071
g3
S'LQG15HS8N2J02'
p1072
sg5
S'Murata'
p1073
sa(dp1074
g3
S'LQP15MN5N6B02D'
p1075
sg5
S'Murata'
p1076
sa(dp1077
g3
S'RC0603FR-0722KL'
p1078
sg5
S'YAGEO'
p1079
sa(dp1080
g3
S'RC0402FR-0722KL'
p1081
sg5
S'YAGEO'
p1082
sa(dp1083
g3
S'RC0603JR-07300RL'
p1084
sg5
S'YAGEO'
p1085
sa(dp1086
g3
S'RC0805JR-07300RL'
p1087
sg5
S'YAGEO'
p1088
sa(dp1089
g3
S'RC0402FR-07100KL'
p1090
sg5
S'YAGEO'
p1091
sa(dp1092
g3
S'ICS-8P'
p1093
sg5
S'NSTECH'
p1094
sa(dp1095
g3
S'RC0603JR-0747RL'
p1096
sg5
S'YAGEO'
p1097
sa(dp1098
g3
S'RC0805JR-0747RL'
p1099
sg5
S'YAGEO'
p1100
sa(dp1101
g3
S'RC0603FR-0782R5L'
p1102
sg5
S'YAGEO'
p1103
sa(dp1104
g3
S'RC0603JR-07560RL'
p1105
sg5
S'YAGEO'
p1106
sa(dp1107
g3
S'RC0402JR-07560RL'
p1108
sg5
S'YAGEO'
p1109
sa(dp1110
g3
S'RC0805JR-07560RL'
p1111
sg5
S'YAGEO'
p1112
sa(dp1113
g3
S'RC0402JR-07820RL'
p1114
sg5
S'YAGEO'
p1115
sa(dp1116
g3
S'RC0603FR-07820RL'
p1117
sg5
S'YAGEO'
p1118
sa(dp1119
g3
S'RC0603JR-07820RL'
p1120
sg5
S'YAGEO'
p1121
sa(dp1122
g3
S'RC0603FR-07470KL'
p1123
sg5
S'YAGEO'
p1124
sa(dp1125
g3
S'RC0402FR-07470KL'
p1126
sg5
S'YAGEO'
p1127
sa(dp1128
g3
S'CC0603CRNPO9BN2R2'
p1129
sg5
S'YAGEO'
p1130
sa(dp1131
g3
S'CC0402CRNPO9BN2R2'
p1132
sg5
S'YAGEO'
p1133
sa(dp1134
g3
S'CC0805JRNPO9BN180'
p1135
sg5
S'YAGEO'
p1136
sa(dp1137
g3
S'CC0402JRNPO9BN180'
p1138
sg5
S'YAGEO'
p1139
sa(dp1140
g3
S'CC0603JRNPO9BN180'
p1141
sg5
S'YAGEO'
p1142
sa(dp1143
g3
S'CC0402KRX7R8BB473'
p1144
sg5
S'YAGEO'
p1145
sa(dp1146
g3
S'CC0603KRX7R9BB473'
p1147
sg5
S'YAGEO'
p1148
sa(dp1149
g3
S'Y502DC'
p1150
sg5
S'CHENGGUNAGXING'
p1151
sa(dp1152
g3
S'STM32F407VET6'
p1153
sg5
S'STMicroelectronics'
p1154
sa(dp1155
g3
S'FT230XS-R'
p1156
sg5
S'FTDI'
p1157
sa(dp1158
g3
S'EM027AS011'
p1159
sg5
S'PDI'
p1160
sa(dp1161
g3
S'EG020BS011'
p1162
sg5
S'PDI'
p1163
sa(dp1164
g3
S'EAO-9745-PFA-C1033-28-008'
p1165
sg5
S'Guangjixing'
p1166
sa(dp1167
g3
S'1N5227B'
p1168
sg5
S'Micro Commercial Co'
p1169
sa(dp1170
g3
S'TA12-200'
p1171
sg5
S'YH'
p1172
sa(dp1173
g3
S'MQ-2'
p1174
sg5
S'winsensor'
p1175
sa(dp1176
g3
S'MQ-3'
p1177
sg5
S'winsensor'
p1178
sa(dp1179
g3
S'MQ-5'
p1180
sg5
S'winsensor'
p1181
sa(dp1182
g3
S'MQ-9'
p1183
sg5
S'winsensor'
p1184
sa(dp1185
g3
S'ME2-O2'
p1186
sg5
S'winsensor'
p1187
sa(dp1188
g3
S'WSP2110'
p1189
sg5
S'winsensor'
p1190
sa(dp1191
g3
S'MQ303B'
p1192
sg5
S'winsensor'
p1193
sa(dp1194
g3
S'SYD3642ASR'
p1195
sg5
S'FANGZHOU'
p1196
sa(dp1197
g3
S'WH09-2-103'
p1198
sg5
S'BAISITE'
p1199
sa(dp1200
g3
S'VLF5010ST-2R2M2R0'
p1201
sg5
S'TDK'
p1202
sa(dp1203
g3
S'MLZ1005M2R2WT000'
p1204
sg5
S'TDK'
p1205
sa(dp1206
g3
S'LQM2MPN2R2MG0'
p1207
sg5
S'AVX'
p1208
sa(dp1209
g3
S'CC0603KRX5R5BB106'
p1210
sg5
S'YAGEO'
p1211
sa(dp1212
g3
S'CC1206KKX5R8BB106'
p1213
sg5
S'YAGEO'
p1214
sa(dp1215
g3
S'LQM21NN1R0K10#'
p1216
sg5
S'AVX'
p1217
sa(dp1218
g3
S'CC0805MKX5R5BB226'
p1219
sg5
S'YAGEO'
p1220
sa(dp1221
g3
S'CC0603MRX5R5BB226'
p1222
sg5
S'YAGEO'
p1223
sa(dp1224
g3
S'CC0805JRNPO9BN100'
p1225
sg5
S'YAGEO'
p1226
sa(dp1227
g3
S'CC0603DRNPO9BN100'
p1228
sg5
S'YAGEO'
p1229
sa(dp1230
g3
S'CC0402JRNPO9BN100'
p1231
sg5
S'YAGEO'
p1232
sa(dp1233
g3
S'F185-1210A0BA1'
p1234
sg5
S'YCONN'
p1235
sa(dp1236
g3
S'RC0603FR-07270RL'
p1237
sg5
S'YAGEO'
p1238
sa(dp1239
g3
S'RC0805JR-07270RL'
p1240
sg5
S'YAGEO'
p1241
sa(dp1242
g3
S'RC1206JR-07270RL'
p1243
sg5
S'YAGEO'
p1244
sa(dp1245
g3
S'RC0402JR-072K7L'
p1246
sg5
S'YAGEO'
p1247
sa(dp1248
g3
S'RC0603FR-072K7L'
p1249
sg5
S'YAGEO'
p1250
sa(dp1251
g3
S'RC0805FR-072K7L'
p1252
sg5
S'YAGEO'
p1253
sa(dp1254
g3
S'GRM1555C1H100GA01D'
p1255
sg5
S'Murata'
p1256
sa(dp1257
g3
S'CC0603JRNPO9BN100'
p1258
sg5
S'YAGEO'
p1259
sa(dp1260
g3
S'RC0402JR-071K5L'
p1261
sg5
S'YAGEO'
p1262
sa(dp1263
g3
S'CC0402JRNPO9BN270'
p1264
sg5
S'YAGEO'
p1265
sa(dp1266
g3
S'CC0805JRNPO9BN270'
p1267
sg5
S'YAGEO'
p1268
sa(dp1269
g3
S'HC49/US'
p1270
sg5
S'XINHUIJING'
p1271
sa(dp1272
g3
S'RC0402FR-07470RL'
p1273
sg5
S'YAGEO'
p1274
sa(dp1275
g3
S'RC0805FR-07470RL'
p1276
sg5
S'YAGEO'
p1277
sa(dp1278
g3
S'RC0603FR-0733RL'
p1279
sg5
S'YAGEO'
p1280
sa(dp1281
g3
S'RL0805JR-070R1L'
p1282
sg5
S'YAGEO'
p1283
sa(dp1284
g3
S'RC0603FR-0730K1L'
p1285
sg5
S'YAGEO'
p1286
sa(dp1287
g3
S'JMK316BJ107ML-T'
p1288
sg5
S'Taiyo Yuden'
p1289
sa(dp1290
g3
S'GRM1555C1E8R2DA01D'
p1291
sg5
S'Murata'
p1292
sa(dp1293
g3
S''
sg5
S'YXCON'
p1294
sa(dp1295
g3
S'504RGBW-K'
p1296
sg5
S'chengguangxing'
p1297
sa(dp1298
g3
S''
sg5
S''
sa(dp1299
g3
S''
sg5
S'JJWJ'
p1300
sa(dp1301
g3
S'CR1220'
p1302
sg5
S''
sa(dp1303
g3
S'CC0402KRX5R6BB105'
p1304
sg5
S'YAGEO'
p1305
sa(dp1306
g3
S'CC0402KRX7R9BB102'
p1307
sg5
S'YAGEO'
p1308
sa(dp1309
g3
S'CC0402KRX7R9BB103'
p1310
sg5
S'YAGEO'
p1311
sa(dp1312
g3
S'GRM216R71E106KA01D'
p1313
sg5
S'Murata'
p1314
sa(dp1315
g3
S'C1005X7R1H104K'
p1316
sg5
S'TDK'
p1317
sa(dp1318
g3
S'SP400561N'
p1319
sg5
S'SP400561N'
p1320
sa(dp1321
g3
S'FBM1211-1001A01B1AF'
p1322
sg5
S'YXCON'
p1323
sa(dp1324
g3
S''
sg5
S'YXCON'
p1325
sa(dp1326
g3
S''
sg5
S'YXCON'
p1327
sa(dp1328
g3
S'ATMEGA32U4-MUR'
p1329
sg5
S'Atmel'
p1330
sa(dp1331
g3
S'CP2102-GMR'
p1332
sg5
S'Silicon'
p1333
sa(dp1334
g3
S'BLM21PG331SN1D'
p1335
sg5
S'Murata'
p1336
sa(dp1337
g3
S'TD1410'
p1338
sg5
S'Techcode'
p1339
sa(dp1340
g3
S'ETA3410D2I-T'
p1341
sg5
S'ETA'
p1342
sa(dp1343
g3
S'ETA1036-50S2F-T'
p1344
sg5
S'ETA'
p1345
sa(dp1346
g3
S'ETA6003Q3Q'
p1347
sg5
S'ETA'
p1348
sa(dp1349
g3
S'ETA6020D2G-T/U'
p1350
sg5
S'ETA'
p1351
sa(dp1352
g3
S'TPS62132RGTR'
p1353
sg5
S'TI'
p1354
sa.