(lp1
(dp2
S''
S''
sS'Part Number'
p3
S'500R14N220JV4T'
p4
sS'Newark P/N'
p5
S''
sS'Description'
p6
S'22pF capacitor ceramic'
p7
sS'Reference'
p8
S'C9, C11'
p9
sS'Package'
p10
S'0603'
p11
sS'Mouser P/N'
p12
S''
sS'Qty'
p13
S'2'
sS'Digi-Key P/N'
p14
S'709-1143-1-ND'
p15
sS'Manufacturer'
p16
S'Johanson'
p17
sa(dp18
S''
S''
sg3
S'MC0603N220J500CT'
p19
sg5
S'06R5149'
p20
sg6
S'22pF capacitor ceramic'
p21
sg8
S'C9, C11'
p22
sg10
S'0603'
p23
sg12
S''
sg13
S'2'
sg14
S''
sg16
S'Multicomp'
p24
sa(dp25
S''
S''
sg3
S'VJ0603A220KXQPW1BC'
p26
sg5
S''
sg6
S'22pF capacitor ceramic'
p27
sg8
S'C9, C11'
p28
sg10
S'0603'
p29
sg12
S'77-VJ0603A220KXQPBC'
p30
sg13
S'2'
sg14
S''
sg16
S'Vishay'
p31
sa(dp32
S''
S''
sg3
S'CC0603KRX7R9BB104'
p33
sg5
S''
sg6
S'100nF capacitor ceramic'
p34
sg8
S'C1, C2, C4, C5, C6, C7'
p35
sg10
S'0603'
p36
sg12
S''
sg13
S'6'
sg14
S'311-1344-1-ND'
p37
sg16
S'Yageo'
p38
sa(dp39
S''
S''
sg3
S'C0603C104K5RACTU'
p40
sg5
S'72J5992'
p41
sg6
S'100nF capacitor ceramic'
p42
sg8
S'C1, C2, C4, C5, C6, C7'
p43
sg10
S'0603'
p44
sg12
S''
sg13
S'6'
sg14
S''
sg16
S'Kemet'
p45
sa(dp46
S''
S''
sg3
S'GRM188R71H104KA93D'
p47
sg5
S'38K1670'
p48
sg6
S'100nF capacitor ceramic'
p49
sg8
S'C1, C2, C4, C5, C6, C7'
p50
sg10
S'0603'
p51
sg12
S'81-GRM39X104K50D'
p52
sg13
S'6'
sg14
S'490-1519-1-ND'
p53
sg16
S'Murata'
p54
sa(dp55
S''
S''
sg3
S'GRM188R60J105KA01D'
p56
sg5
S''
sg6
S'1uF capacitor ceramic 6.3V'
p57
sg8
S'C3, C8'
p58
sg10
S'0603'
p59
sg12
S'81-GRM39R105K6.3'
p60
sg13
S'2'
sg14
S'490-1550-1-ND'
p61
sg16
S'Murata'
p62
sa(dp63
S''
S''
sg3
S'C1608X5R1A105MT'
p64
sg5
S''
sg6
S'1uF capacitor ceramic 10V'
p65
sg8
S'C3, C8'
p66
sg10
S'0603'
p67
sg12
S'810-C1608X5R1A105M'
p68
sg13
S'2'
sg14
S''
sg16
S'TDK'
p69
sa(dp70
S''
S''
sg3
S'EMVA250ADA470MF55G'
p71
sg5
S'76K1185'
p72
sg6
S'47uF electrolytic capacitor SMT'
p73
sg8
S'PC1, PC2'
p74
sg10
S'SMD'
p75
sg12
S'661-EMVA250ADA470MF5'
p76
sg13
S'2'
sg14
S'565-2103-1-ND'
p77
sg16
S'UCC'
p78
sa(dp79
S''
S''
sg3
S'AVE476M50X16T-F'
p80
sg5
S''
sg6
S'47uF electrolytic capacitor SMT'
p81
sg8
S'PC1, PC2'
p82
sg10
S'SMD'
p83
sg12
S'598-AVE476M50X16T-F'
p84
sg13
S'2'
sg14
S''
sg16
S'Cornell'
p85
sa(dp86
S''
S''
sg3
S'PJ-102A'
p87
sg5
S''
sg6
S'2.1mm DC power jack'
p88
sg8
S'X1'
p89
sg10
S'PTH'
p90
sg12
S''
sg13
S'1'
sg14
S'CP-102A-ND'
p91
sg16
S'CUI'
p92
sa(dp93
S''
S''
sg3
S'USB-B1HSW6'
p94
sg5
S''
sg6
S'USB type B connector right-angle _ white'
p95
sg8
S'X2'
p96
sg10
S'PTH'
p97
sg12
S''
sg13
S'1'
sg14
S'ED2982-ND'
p98
sg16
S'On Shore'
p99
sa(dp100
S''
S''
sg3
S'USB-B1HSB6'
p101
sg5
S''
sg6
S'USB type B connector right-angle _ black'
p102
sg8
S'X2'
p103
sg10
S'PTH'
p104
sg12
S''
sg13
S'1'
sg14
S'ED2983-ND'
p105
sg16
S'On Shore'
p106
sa(dp107
S''
S''
sg3
S'67996-404HLF'
p108
sg5
S''
sg6
S'Pin header 0.1_ 2x2'
p109
sg8
S'JP2'
p110
sg10
S'PTH'
p111
sg12
S'649-67996-404HLF'
p112
sg13
S'1'
sg14
S'609-3390-ND'
p113
sg16
S'FCI'
p114
sa(dp115
S''
S''
sg3
S'67996-406HLF'
p116
sg5
S'20M2191'
p117
sg6
S'Pin header 0.1_ 2x3'
p118
sg8
S'ICSP, ICSP1'
p119
sg10
S'PTH'
p120
sg12
S'649-67996-406HLF'
p121
sg13
S'2'
sg14
S'609-3218-ND'
p122
sg16
S'FCI'
p123
sa(dp124
S''
S''
sg3
S'M20-7820646'
p125
sg5
S''
sg6
S'Socket strip 0.1_ 1x6'
p126
sg8
S'AD'
p127
sg10
S'PTH'
p128
sg12
S'855-M20-7820646'
p129
sg13
S'1'
sg14
S''
sg16
S'Harwin'
p130
sa(dp131
S''
S''
sg3
S'5-534237-4'
p132
sg5
S'62M8851'
p133
sg6
S'Socket strip 0.1_ 1x6'
p134
sg8
S'AD'
p135
sg10
S'PTH'
p136
sg12
S''
sg13
S'1'
sg14
S'A32907-ND'
p137
sg16
S'TE'
p138
sa(dp139
S''
S''
sg3
S'960108-6202-AR'
p140
sg5
S'62R6734'
p141
sg6
S'Socket strip 0.1_ 1x8'
p142
sg8
S'IOL, POWER'
p143
sg10
S'PTH'
p144
sg12
S'517-9601086202AR'
p145
sg13
S'2'
sg14
S'3M9518-ND'
p146
sg16
S'3M'
p147
sa(dp148
S''
S''
sg3
S'M20-7820842'
p149
sg5
S''
sg6
S'Socket strip 0.1_ 1x8'
p150
sg8
S'IOL, POWER'
p151
sg10
S'PTH'
p152
sg12
S'855-M20-7820842'
p153
sg13
S'2'
sg14
S''
sg16
S'Harwin'
p154
sa(dp155
S''
S''
sg3
S'M20-7821046'
p156
sg5
S''
sg6
S'Socket strip 0.1_ 1x10'
p157
sg8
S'IOH'
p158
sg10
S'PTH'
p159
sg12
S'855-M20-7821046'
p160
sg13
S'1'
sg14
S''
sg16
S'Harwin'
p161
sa(dp162
S''
S''
sg3
S'5-534237-8'
p163
sg5
S'52K3746'
p164
sg6
S'Socket strip 0.1_ 1x10'
p165
sg8
S'IOH'
p166
sg10
S'PTH'
p167
sg12
S'571-5-534237-8'
p168
sg13
S'1'
sg14
S'A32910-ND'
p169
sg16
S'TE'
p170
sa(dp171
S''
S''
sg3
S'ATS16B'
p172
sg5
S''
sg6
S'16MHz 18pF'
p173
sg8
S'Y1'
p174
sg10
S'HC49/US'
p175
sg12
S'774-ATS16B'
p176
sg13
S'1'
sg14
S'CTX1085-ND'
p177
sg16
S'CTS'
p178
sa(dp179
S''
S''
sg3
S'ABL-16.000MHZ-B2'
p180
sg5
S'13J1628'
p181
sg6
S'16MHz 18pF'
p182
sg8
S'Y1'
p183
sg10
S'HC49/US'
p184
sg12
S'815-ABL-16-B2'
p185
sg13
S'1'
sg14
S''
sg16
S'Abracon'
p186
sa(dp187
S''
S''
sg3
S'CD1206-S01575'
p188
sg5
S'09J8040'
p189
sg6
S'Switching diode'
p190
sg8
S'D2, D3'
p191
sg10
S'1206'
p192
sg12
S'652-CD1206-S01575'
p193
sg13
S'2'
sg14
S''
sg16
S'Bourns'
p194
sa(dp195
S''
S''
sg3
S'S2M-13-F'
p196
sg5
S''
sg6
S'Switching diode'
p197
sg8
S'D1'
p198
sg10
S'SMB'
p199
sg12
S'621-S2M-F'
p200
sg13
S'1'
sg14
S'S2M-FDICT-ND'
p201
sg16
S'Diodes Inc'
p202
sa(dp203
S''
S''
sg3
S'S2J'
p204
sg5
S'05R5915'
p205
sg6
S'Switching diode'
p206
sg8
S'D1'
p207
sg10
S'SMB'
p208
sg12
S'512-S2J'
p209
sg13
S'1'
sg14
S'S2J-TPMSCT-ND'
p210
sg16
S'Fairchild'
p211
sa(dp212
S''
S''
sg3
S'BLM21PG221SN1D'
p213
sg5
S''
sg6
S'Ferrite 50mOhm@DC / 220ohm@100MHz'
p214
sg8
S'L1'
p215
sg10
S'0805'
p216
sg12
S'81-BLM21P221SG'
p217
sg13
S'1'
sg14
S'490-1054-1-ND'
p218
sg16
S'Murata'
p219
sa(dp220
S''
S''
sg3
S'MF-MSMF050-2'
p221
sg5
S'02J2718'
p222
sg6
S'Fuse 500mA 15V'
p223
sg8
S'F1'
p224
sg10
S'1812'
p225
sg12
S'652-MF-MSMF050-2'
p226
sg13
S'1'
sg14
S'MF-MSMF050-2CT-ND'
p227
sg16
S'Bourns'
p228
sa(dp229
S''
S''
sg3
S'ATMEGA16U2-MUR'
p230
sg5
S''
sg6
S'ATmega16U2 16kB FLASH'
p231
sg8
S'U3'
p232
sg10
S'VQFN-32'
p233
sg12
S'556-ATMEGA16U2-MUR'
p234
sg13
S'1'
sg14
S'ATMEGA16U2-MURCT-ND'
p235
sg16
S'Atmel'
p236
sa(dp237
S''
S''
sg3
S'ATMEGA328P-PU'
p238
sg5
S'15R0268'
p239
sg6
S'ATmega328P'
p240
sg8
S'ZU4'
p241
sg10
S'DIP-28'
p242
sg12
S'556-ATMEGA328P-PU'
p243
sg13
S'1'
sg14
S'ATMEGA328P-PU-ND'
p244
sg16
S'Atmel'
p245
sa(dp246
S''
S''
sg3
S'LMV358IDGKR'
p247
sg5
S''
sg6
S'Dual op-amp RRO'
p248
sg8
S'U5'
p249
sg10
S'MSOP-8'
p250
sg12
S'595-LMV358IDGKR'
p251
sg13
S'1'
sg14
S'296-13455-1-ND'
p252
sg16
S'TI'
p253
sa(dp254
S''
S''
sg3
S'MCP6002-E/MS'
p255
sg5
S'88H9854'
p256
sg6
S'Dual op-amp RRO'
p257
sg8
S'U5'
p258
sg10
S'MSOP-8'
p259
sg12
S'579-MCP6002-E/MS'
p260
sg13
S'1'
sg14
S'MCP6002-E/MS-ND'
p261
sg16
S'Microchip'
p262
sa(dp263
S''
S''
sg3
S'LP2985-33DBVR'
p264
sg5
S'43J9346'
p265
sg6
S'150mA 3.3V LDO'
p266
sg8
S'U2'
p267
sg10
S'SOT-23-5'
p268
sg12
S'595-LP2985-33DBVR'
p269
sg13
S'1'
sg14
S'296-18476-1-ND'
p270
sg16
S'TI'
p271
sa(dp272
S''
S''
sg3
S'NCP1117ST50T3G'
p273
sg5
S'71J6563'
p274
sg6
S'1A 5V LDO'
p275
sg8
S'U1'
p276
sg10
S'SOT-223'
p277
sg12
S'863-NCP1117ST50T3G'
p278
sg13
S'1'
sg14
S'NCP1117ST50T3GOSCT-ND'
p279
sg16
S'ON Semi'
p280
sa(dp281
S''
S''
sg3
S'LG R971-KN-1-0-20-R18'
p282
sg5
S''
sg6
S'LED green'
p283
sg8
S'ON'
p284
sg10
S'0805'
p285
sg12
S''
sg13
S'1'
sg14
S'475-1410-1-ND'
p286
sg16
S'Osram'
p287
sa(dp288
S''
S''
sg3
S'598-8160-107F'
p289
sg5
S'75R0586'
p290
sg6
S'LED green'
p291
sg8
S'ON'
p292
sg10
S'0805'
p293
sg12
S'645-598-8160-107F'
p294
sg13
S'1'
sg14
S'350-2043-1-ND'
p295
sg16
S'Dialight'
p296
sa(dp297
S''
S''
sg3
S'LTST-C171KSKT'
p298
sg5
S''
sg6
S'LED yellow'
p299
sg8
S'L, RX, TX'
p300
sg10
S'0805'
p301
sg12
S'859-LTST-C171KSKT'
p302
sg13
S'3'
sg14
S'160-1428-1-ND'
p303
sg16
S'Lite-On'
p304
sa(dp305
S''
S''
sg3
S'APT2012YC'
p306
sg5
S''
sg6
S'LED yellow'
p307
sg8
S'L, RX, TX'
p308
sg10
S'0805'
p309
sg12
S'604-APT2012YC'
p310
sg13
S'3'
sg14
S'754-1135-1-ND'
p311
sg16
S'Kingbright'
p312
sa(dp313
S''
S''
sg3
S'CAY16-220J4LF'
p314
sg5
S''
sg6
S'22ohm 4-resistor series array'
p315
sg8
S'RN3'
p316
sg10
S'1206'
p317
sg12
S'652-CAY16-220J4LF'
p318
sg13
S'1'
sg14
S'CAY16-220J4LF-ND'
p319
sg16
S'Bourns'
p320
sa(dp321
S''
S''
sg3
S'CAY16-102J4LF'
p322
sg5
S'96M0890'
p323
sg6
S'1k 4-resistor series array'
p324
sg8
S'RN2, RN4'
p325
sg10
S'1206'
p326
sg12
S'652-CAY16-102J4LF'
p327
sg13
S'2'
sg14
S'CAY16-102J4LF-ND'
p328
sg16
S'Bourns'
p329
sa(dp330
S''
S''
sg3
S'CAY16-103J4LF'
p331
sg5
S'02J1097'
p332
sg6
S'10k 4-resistor series array'
p333
sg8
S'RN1'
p334
sg10
S'1206'
p335
sg12
S'652-CAY16-103J4LF'
p336
sg13
S'1'
sg14
S'CAY16-103J4LF-ND'
p337
sg16
S'Bourns'
p338
sa(dp339
S''
S''
sg3
S'ERJ-3GEYJ105V'
p340
sg5
S''
sg6
S'1M resistor 5% 1/10W'
p341
sg8
S'R1, R2'
p342
sg10
S'0603'
p343
sg12
S'667-ERJ-3GEYJ105V'
p344
sg13
S'2'
sg14
S'P1.0MGCT-ND'
p345
sg16
S'Panasonic'
p346
sa(dp347
S''
S''
sg3
S'CR0603-JW-105GLF'
p348
sg5
S'32K2615'
p349
sg6
S'1M resistor 5% 1/10W'
p350
sg8
S'R1, R2'
p351
sg10
S'0603'
p352
sg12
S'652-CR0603-JW-105GLF'
p353
sg13
S'2'
sg14
S''
sg16
S'Bourns'
p354
sa(dp355
S''
S''
sg3
S'CSTCE16M0V53-R0'
p356
sg5
S''
sg6
S'16MHz resonator with built-in caps'
p357
sg8
S'Y2'
p358
sg10
S'SMD'
p359
sg12
S'81-CSTCE16M0V53-R0'
p360
sg13
S'1'
sg14
S'490-1198-1-ND'
p361
sg16
S'Murata'
p362
sa(dp363
S''
S''
sg3
S'TS42031-160R-TR-7260'
p364
sg5
S''
sg6
S'Tactile switch'
p365
sg8
S'RESET'
p366
sg10
S'SMT'
p367
sg12
S''
sg13
S'1'
sg14
S''
sN(lp368
S''
aS''
aS''
aS''
aS''
aS''
aS''
aS''
aS''
aS''
aS''
aS''
aS''
aS''
aS''
aS''
aS''
aS''
aS''
aS''
aS''
aS''
aS''
aS''
aS''
aS''
aS''
aS''
aS''
aS''
aS''
aS''
aS''
aS''
aS''
aS''
aS''
aS''
aS''
aS''
aS''
aS''
aS''
aS''
aS''
aS''
aS''
aS''
aS''
aS''
aS''
aS''
aS''
aS''
aS''
aS''
aS''
aS''
aS''
aS''
aS''
aS''
aS''
aS''
aS''
aS''
aS''
aS''
aS''
aS''
aS''
aS''
aS''
aS''
aS''
aS''
aS''
aS''
aS''
aS''
aS''
aS''
aS''
aS''
aS''
aS''
aS''
aS''
aS''
aS''
aS''
aS''
aS''
aS''
aS''
aS''
aS''
aS''
aS''
aS''
aS''
aS''
aS''
aS''
aS''
aS''
aS''
aS''
aS''
aS''
aS''
aS''
aS''
aS''
aS''
aS''
aS''
aS''
aS''
aS''
aS''
aS''
aS''
aS''
aS''
aS''
aS''
aS''
aS''
aS''
aS''
aS''
aS''
aS''
aS''
aS''
aS''
aS''
aS''
aS''
aS''
aS''
aS''
aS''
aS''
aS''
aS''
aS''
aS''
aS''
aS''
aS''
aS''
aS''
aS''
aS''
aS''
aS''
aS''
aS''
aS''
aS''
aS''
aS''
aS''
aS''
aS''
aS''
aS''
aS''
aS''
aS''
aS''
aS''
aS''
aS''
aS''
aS''
aS''
aS''
aS''
aS''
aS''
aS''
aS''
aS''
aS''
aS''
aS''
aS''
aS''
aS''
aS''
aS''
aS''
aS''
aS''
aS''
aS''
aS''
aS''
aS''
aS''
aS''
aS''
aS''
aS''
aS''
aS''
aS''
aS''
aS''
aS''
aS''
aS''
aS''
aS''
aS''
aS''
aS''
aS''
aS''
aS''
aS''
aS''
aS''
aS''
aS''
aS''
aS''
aS''
aS''
aS''
aS''
aS''
aS''
aS''
aS''
aS''
aS''
aS''
aS''
aS''
aS''
aS''
aS''
asg16
S'???'
p369
sa(dp370
S''
S''
sg3
S'FDN340P'
p371
sg5
S'58K8841'
p372
sg6
S'20V P-type MOSFET'
p373
sg8
S'T1'
p374
sg10
S'SOT-23'
p375
sg12
S'512-FDN340P'
p376
sg13
S'1'
sg14
S'FDN340PCT-ND'
p377
sN(lp378
S''
aS''
aS''
aS''
aS''
aS''
aS''
aS''
aS''
aS''
aS''
aS''
aS''
aS''
aS''
aS''
aS''
aS''
aS''
aS''
aS''
aS''
aS''
aS''
aS''
aS''
aS''
aS''
aS''
aS''
aS''
aS''
aS''
aS''
aS''
aS''
aS''
aS''
aS''
aS''
aS''
aS''
aS''
aS''
aS''
aS''
aS''
aS''
aS''
aS''
aS''
aS''
aS''
aS''
aS''
aS''
aS''
aS''
aS''
aS''
aS''
aS''
aS''
aS''
aS''
aS''
aS''
aS''
aS''
aS''
aS''
aS''
aS''
aS''
aS''
aS''
aS''
aS''
aS''
aS''
aS''
aS''
aS''
aS''
aS''
aS''
aS''
aS''
aS''
aS''
aS''
aS''
aS''
aS''
aS''
aS''
aS''
aS''
aS''
aS''
aS''
aS''
aS''
aS''
aS''
aS''
aS''
aS''
aS''
aS''
aS''
aS''
aS''
aS''
aS''
aS''
aS''
aS''
aS''
aS''
aS''
aS''
aS''
aS''
aS''
aS''
aS''
aS''
aS''
aS''
aS''
aS''
aS''
aS''
aS''
aS''
aS''
aS''
aS''
aS''
aS''
aS''
aS''
aS''
aS''
aS''
aS''
aS''
aS''
aS''
aS''
aS''
aS''
aS''
aS''
aS''
aS''
aS''
aS''
aS''
aS''
aS''
aS''
aS''
aS''
aS''
aS''
aS''
aS''
aS''
aS''
aS''
aS''
aS''
aS''
aS''
aS''
aS''
aS''
aS''
aS''
aS''
aS''
aS''
aS''
aS''
aS''
aS''
aS''
aS''
aS''
aS''
aS''
aS''
aS''
aS''
aS''
aS''
aS''
aS''
aS''
aS''
aS''
aS''
aS''
aS''
aS''
aS''
aS''
aS''
aS''
aS''
aS''
aS''
aS''
aS''
aS''
aS''
aS''
aS''
aS''
aS''
aS''
aS''
aS''
aS''
aS''
aS''
aS''
aS''
aS''
aS''
aS''
aS''
aS''
aS''
aS''
aS''
aS''
aS''
aS''
aS''
aS''
aS''
aS''
aS''
asg16
S'Fairchild'
p379
sa(dp380
S''
S''
sg3
S'CG0603MLC-05E'
p381
sg5
S'97M3815'
p382
sg6
S'Low-capacitance varistor 5V WV'
p383
sg8
S'Z1, Z2'
p384
sg10
S'0603'
p385
sg12
S'652-CG0603MLC-05E'
p386
sg13
S'2'
sg14
S'CG0603MLC-05E-ND'
p387
sN(lp388
S''
aS''
aS''
aS''
aS''
aS''
aS''
aS''
aS''
aS''
aS''
aS''
aS''
aS''
aS''
aS''
aS''
aS''
aS''
aS''
aS''
aS''
aS''
aS''
aS''
aS''
aS''
aS''
aS''
aS''
aS''
aS''
aS''
aS''
aS''
aS''
aS''
aS''
aS''
aS''
aS''
aS''
aS''
aS''
aS''
aS''
aS''
aS''
aS''
aS''
aS''
aS''
aS''
aS''
aS''
aS''
aS''
aS''
aS''
aS''
aS''
aS''
aS''
aS''
aS''
aS''
aS''
aS''
aS''
aS''
aS''
aS''
aS''
aS''
aS''
aS''
aS''
aS''
aS''
aS''
aS''
aS''
aS''
aS''
aS''
aS''
aS''
aS''
aS''
aS''
aS''
aS''
aS''
aS''
aS''
aS''
aS''
aS''
aS''
aS''
aS''
aS''
aS''
aS''
aS''
aS''
aS''
aS''
aS''
aS''
aS''
aS''
aS''
aS''
aS''
aS''
aS''
aS''
aS''
aS''
aS''
aS''
aS''
aS''
aS''
aS''
aS''
aS''
aS''
aS''
aS''
aS''
aS''
aS''
aS''
aS''
aS''
aS''
aS''
aS''
aS''
aS''
aS''
aS''
aS''
aS''
aS''
aS''
aS''
aS''
aS''
aS''
aS''
aS''
aS''
aS''
aS''
aS''
aS''
aS''
aS''
aS''
aS''
aS''
aS''
aS''
aS''
aS''
aS''
aS''
aS''
aS''
aS''
aS''
aS''
aS''
aS''
aS''
aS''
aS''
aS''
aS''
aS''
aS''
aS''
aS''
aS''
aS''
aS''
aS''
aS''
aS''
aS''
aS''
aS''
aS''
aS''
aS''
aS''
aS''
aS''
aS''
aS''
aS''
aS''
aS''
aS''
aS''
aS''
aS''
aS''
aS''
aS''
aS''
aS''
aS''
aS''
aS''
aS''
aS''
aS''
aS''
aS''
aS''
aS''
aS''
aS''
aS''
aS''
aS''
aS''
aS''
aS''
aS''
aS''
aS''
aS''
aS''
aS''
aS''
aS''
aS''
aS''
aS''
aS''
aS''
asg16
S'Bourns'
p389
sa.